; ModuleID = 'source-C-CXX/22/96.c'
source_filename = "source-C-CXX/22/96.c"
target datalayout = "e-m:e-p270:32:32-p271:32:32-p272:64:64-i64:64-f80:128-n8:16:32:64-S128"
target triple = "x86_64-pc-linux-gnu"

@.str = private unnamed_addr constant [3 x i8] c"%s\00", align 1
@.str.1 = private unnamed_addr constant [4 x i8] c"%s \00", align 1

; Function Attrs: nofree nounwind sspstrong uwtable
define dso_local i32 @main() local_unnamed_addr #0 {
  %1 = alloca [100 x i8], align 16
  %2 = getelementptr inbounds [100 x i8], [100 x i8]* %1, i64 0, i64 0
  %3 = alloca [100 x [100 x i8]], align 16
  %4 = getelementptr inbounds [100 x i8], [100 x i8]* %1, i64 0, i64 0
  call void @llvm.lifetime.start.p0i8(i64 100, i8* nonnull %4) #5
  %5 = getelementptr inbounds [100 x [100 x i8]], [100 x [100 x i8]]* %3, i64 0, i64 0, i64 0
  call void @llvm.lifetime.start.p0i8(i64 10000, i8* nonnull %5) #5
  %6 = call i32 (i8*, ...) @__isoc99_scanf(i8* getelementptr inbounds ([3 x i8], [3 x i8]* @.str, i64 0, i64 0), [100 x i8]* nonnull %1)
  %7 = icmp eq i32 %6, -1
  br i1 %7, label %35, label %13

8:                                                ; preds = %22
  %9 = icmp eq i32 %15, 0
  br i1 %9, label %35, label %10

10:                                               ; preds = %8
  %11 = zext i32 %23 to i64
  %12 = zext i32 %15 to i64
  br label %27

13:                                               ; preds = %0, %22
  %14 = phi i64 [ %26, %22 ], [ 0, %0 ]
  %15 = phi i32 [ %23, %22 ], [ 0, %0 ]
  %16 = call i64 @strlen(i8* noundef nonnull %4) #6
  %17 = trunc i64 %16 to i32
  %18 = icmp sgt i32 %17, 0
  br i1 %18, label %19, label %22

19:                                               ; preds = %13
  %20 = getelementptr [100 x [100 x i8]], [100 x [100 x i8]]* %3, i64 0, i64 %14, i64 0
  %21 = and i64 %16, 4294967295
  call void @llvm.memcpy.p0i8.p0i8.i64(i8* align 4 %20, i8* nonnull align 16 %2, i64 %21, i1 false)
  br label %22

22:                                               ; preds = %19, %13
  %23 = add nuw nsw i32 %15, 1
  %24 = call i32 (i8*, ...) @__isoc99_scanf(i8* getelementptr inbounds ([3 x i8], [3 x i8]* @.str, i64 0, i64 0), [100 x i8]* nonnull %1)
  %25 = icmp eq i32 %24, -1
  %26 = add nuw i64 %14, 1
  br i1 %25, label %8, label %13, !llvm.loop !5

27:                                               ; preds = %10, %27
  %28 = phi i64 [ 0, %10 ], [ %33, %27 ]
  %29 = xor i64 %28, -1
  %30 = add nsw i64 %11, %29
  %31 = getelementptr inbounds [100 x [100 x i8]], [100 x [100 x i8]]* %3, i64 0, i64 %30, i64 0
  %32 = call i32 (i8*, ...) @printf(i8* nonnull dereferenceable(1) getelementptr inbounds ([4 x i8], [4 x i8]* @.str.1, i64 0, i64 0), i8* nonnull %31)
  %33 = add nuw nsw i64 %28, 1
  %34 = icmp eq i64 %33, %12
  br i1 %34, label %35, label %27, !llvm.loop !7

35:                                               ; preds = %27, %0, %8
  %36 = call i32 (i8*, ...) @printf(i8* nonnull dereferenceable(1) getelementptr inbounds ([3 x i8], [3 x i8]* @.str, i64 0, i64 0), i8* nonnull %5)
  call void @llvm.lifetime.end.p0i8(i64 10000, i8* nonnull %5) #5
  call void @llvm.lifetime.end.p0i8(i64 100, i8* nonnull %4) #5
  ret i32 0
}

; Function Attrs: argmemonly mustprogress nofree nosync nounwind willreturn
declare void @llvm.lifetime.start.p0i8(i64 immarg, i8* nocapture) #1

; Function Attrs: nofree nounwind
declare noundef i32 @__isoc99_scanf(i8* nocapture noundef readonly, ...) local_unnamed_addr #2

; Function Attrs: argmemonly mustprogress nofree nounwind readonly willreturn
declare i64 @strlen(i8* nocapture) local_unnamed_addr #3

; Function Attrs: nofree nounwind
declare noundef i32 @printf(i8* nocapture noundef readonly, ...) local_unnamed_addr #2

; Function Attrs: argmemonly mustprogress nofree nosync nounwind willreturn
declare void @llvm.lifetime.end.p0i8(i64 immarg, i8* nocapture) #1

; Function Attrs: argmemonly nofree nounwind willreturn
declare void @llvm.memcpy.p0i8.p0i8.i64(i8* noalias nocapture writeonly, i8* noalias nocapture readonly, i64, i1 immarg) #4


!llvm.module.flags = !{!0, !1, !2, !3}
!llvm.ident = !{!4}

!0 = !{i32 1, !"wchar_size", i32 4}
!1 = !{i32 7, !"PIC Level", i32 2}
!2 = !{i32 7, !"PIE Level", i32 2}
!3 = !{i32 7, !"uwtable", i32 1}
!4 = !{!"clang version 13.0.0"}
!5 = distinct !{!5, !6}
!6 = !{!"llvm.loop.mustprogress"}
!7 = distinct !{!7, !6}
